(dp0
S'Lounge_y'
p1
I300
sS'Lounge_x'
p2
I500
s.(lp0
.(lp0
.(lp0
.(lp0
.(lp0
.(lp0
.(lp0
.(lp0
.(dp0
S'Bedroom_x'
p1
I300
sS'Bedroom_y'
p2
I150
s.(dp0
S'Bedroom_x'
p1
I300
sS'Bedroom_y'
p2
I150
s.(lp0
.